; Function Attrs: nofree nosync nounwind memory(readwrite, inaccessiblemem: none) uwtable
define range(i32 0, 2) i32 @Nwk_ManVerifyCut_rec(ptr noundef captures(none) %0) local_unnamed_addr #0 {
  %2 = getelementptr inbounds nuw i8, ptr %0, i64 32
  %3 = load i32, ptr %2, align 8
  %4 = and i32 %3, 16
  %.not = icmp eq i32 %4, 0
  br i1 %.not, label %5, label %.critedge

5:                                                ; preds = %1
  %6 = load ptr, ptr %0, align 8, !tbaa !20
  %7 = getelementptr inbounds nuw i8, ptr %6, i64 116
  %8 = load i32, ptr %7, align 4, !tbaa !33
  %.not.i = icmp eq i32 %8, 0
  %9 = and i32 %3, 7
  %.not5.i = icmp ne i32 %9, 1
  %or.cond.not26 = or i1 %.not5.i, %.not.i
  %10 = lshr i32 %3, 7
  %.not18 = icmp slt i32 %10, %8
  %or.cond20 = or i1 %.not18, %or.cond.not26
  br i1 %or.cond20, label %Nwk_ObjIsLo.exit.thread, label %.critedge

Nwk_ObjIsLo.exit.thread:                          ; preds = %5
  %11 = getelementptr i8, ptr %0, i64 40
  %.val16 = load i32, ptr %11, align 8, !tbaa !21
  %12 = getelementptr i8, ptr %6, i64 104
  %.val.val = load i32, ptr %12, align 8, !tbaa !22
  %.not19 = icmp eq i32 %.val16, %.val.val
  br i1 %.not19, label %.critedge, label %13

13:                                               ; preds = %Nwk_ObjIsLo.exit.thread
  store i32 %.val.val, ptr %11, align 8, !tbaa !21
  %14 = getelementptr inbounds nuw i8, ptr %0, i64 72
  %15 = getelementptr inbounds nuw i8, ptr %0, i64 60
  %16 = load i32, ptr %15, align 4, !tbaa !3
  %17 = icmp sgt i32 %16, 0
  br i1 %17, label %.lr.ph, label %.critedge

18:                                               ; preds = %25
  %indvars.iv.next = add nuw nsw i64 %indvars.iv, 1
  %19 = load i32, ptr %15, align 4, !tbaa !3
  %20 = sext i32 %19 to i64
  %21 = icmp slt i64 %indvars.iv.next, %20
  br i1 %21, label %.lr.ph, label %.critedge, !llvm.loop !34

.lr.ph:                                           ; preds = %13, %18
  %indvars.iv = phi i64 [ %indvars.iv.next, %18 ], [ 0, %13 ]
  %22 = load ptr, ptr %14, align 8, !tbaa !13
  %23 = getelementptr inbounds nuw ptr, ptr %22, i64 %indvars.iv
  %24 = load ptr, ptr %23, align 8, !tbaa !14
  %.not14 = icmp eq ptr %24, null
  br i1 %.not14, label %.critedge, label %25

25:                                               ; preds = %.lr.ph
  %26 = tail call i32 @Nwk_ManVerifyCut_rec(ptr noundef nonnull %24)
  %.not15 = icmp eq i32 %26, 0
  br i1 %.not15, label %.critedge, label %18

.critedge:                                        ; preds = %25, %18, %.lr.ph, %13, %5, %Nwk_ObjIsLo.exit.thread, %1
  %.010 = phi i32 [ 1, %1 ], [ 1, %Nwk_ObjIsLo.exit.thread ], [ 0, %5 ], [ 1, %13 ], [ 0, %25 ], [ 1, %18 ], [ 1, %.lr.ph ]
  ret i32 %.010
}